target datalayout = "e-m:e-p270:32:32-p271:32:32-p272:64:64-i64:64-i128:128-f80:128-n8:16:32:64-S128"
target triple = "x86_64-pc-linux-gnu"

@.str.28 = private unnamed_addr constant [13 x i8] c"bad argument\00", align 1
@.str.29 = private unnamed_addr constant [5 x i8] c"git-\00", align 1
@.str.30 = private unnamed_addr constant [12 x i8] c"bad command\00", align 1

; Function Attrs: inlinehint nounwind uwtable
define internal zeroext i1 @skip_prefix(ptr noundef %0, ptr noundef %1, ptr noundef %2) #9 {
  %4 = alloca i1, align 1
  %5 = alloca ptr, align 8
  %6 = alloca ptr, align 8
  %7 = alloca ptr, align 8
  store ptr %0, ptr %5, align 8, !tbaa !11
  store ptr %1, ptr %6, align 8, !tbaa !11
  store ptr %2, ptr %7, align 8, !tbaa !8
  br label %8

8:                                                ; preds = %16, %3
  %9 = load ptr, ptr %6, align 8, !tbaa !11
  %10 = load i8, ptr %9, align 1, !tbaa !13
  %11 = icmp ne i8 %10, 0
  br i1 %11, label %15, label %12

12:                                               ; preds = %8
  %13 = load ptr, ptr %5, align 8, !tbaa !11
  %14 = load ptr, ptr %7, align 8, !tbaa !8
  store ptr %13, ptr %14, align 8, !tbaa !11
  store i1 true, ptr %4, align 1
  br label %27

15:                                               ; preds = %8
  br label %16

16:                                               ; preds = %15
  %17 = load ptr, ptr %5, align 8, !tbaa !11
  %18 = getelementptr inbounds nuw i8, ptr %17, i32 1
  store ptr %18, ptr %5, align 8, !tbaa !11
  %19 = load i8, ptr %17, align 1, !tbaa !13
  %20 = sext i8 %19 to i32
  %21 = load ptr, ptr %6, align 8, !tbaa !11
  %22 = getelementptr inbounds nuw i8, ptr %21, i32 1
  store ptr %22, ptr %6, align 8, !tbaa !11
  %23 = load i8, ptr %21, align 1, !tbaa !13
  %24 = sext i8 %23 to i32
  %25 = icmp eq i32 %20, %24
  br i1 %25, label %8, label %26, !llvm.loop !26

26:                                               ; preds = %16
  store i1 false, ptr %4, align 1
  br label %27

27:                                               ; preds = %26, %12
  %28 = load i1, ptr %4, align 1
  ret i1 %28
}

; Function Attrs: nounwind uwtable
define internal i32 @do_generic_cmd(ptr noundef %0, ptr noundef %1) #0 {
  %3 = alloca ptr, align 8
  %4 = alloca ptr, align 8
  %5 = alloca [4 x ptr], align 16
  store ptr %0, ptr %3, align 8, !tbaa !11
  store ptr %1, ptr %4, align 8, !tbaa !11
  call void @llvm.lifetime.start.p0(i64 32, ptr %5) #10
  call void @setup_path()
  %6 = load ptr, ptr %4, align 8, !tbaa !11
  %7 = icmp ne ptr %6, null
  br i1 %7, label %8, label %17

8:                                                ; preds = %2
  %9 = load ptr, ptr %4, align 8, !tbaa !11
  %10 = call ptr @sq_dequote(ptr noundef %9)
  store ptr %10, ptr %4, align 8, !tbaa !11
  %11 = icmp ne ptr %10, null
  br i1 %11, label %12, label %17

12:                                               ; preds = %8
  %13 = load ptr, ptr %4, align 8, !tbaa !11
  %14 = load i8, ptr %13, align 1, !tbaa !13
  %15 = sext i8 %14 to i32
  %16 = icmp eq i32 %15, 45
  br i1 %16, label %17, label %18

17:                                               ; preds = %12, %8, %2
  call void (ptr, ...) @die(ptr noundef @.str.28) #12
  unreachable

18:                                               ; preds = %12
  %19 = load ptr, ptr %3, align 8, !tbaa !11
  %20 = call zeroext i1 @skip_prefix(ptr noundef %19, ptr noundef @.str.29, ptr noundef %3)
  br i1 %20, label %22, label %21

21:                                               ; preds = %18
  call void (ptr, ...) @die(ptr noundef @.str.30) #12
  unreachable

22:                                               ; preds = %18
  %23 = load ptr, ptr %3, align 8, !tbaa !11
  %24 = getelementptr inbounds [4 x ptr], ptr %5, i64 0, i64 0
  store ptr %23, ptr %24, align 16, !tbaa !11
  %25 = load ptr, ptr %4, align 8, !tbaa !11
  %26 = getelementptr inbounds [4 x ptr], ptr %5, i64 0, i64 1
  store ptr %25, ptr %26, align 8, !tbaa !11
  %27 = getelementptr inbounds [4 x ptr], ptr %5, i64 0, i64 2
  store ptr null, ptr %27, align 16, !tbaa !11
  %28 = getelementptr inbounds [4 x ptr], ptr %5, i64 0, i64 0
  %29 = call i32 @execv_git_cmd(ptr noundef %28)
  call void @llvm.lifetime.end.p0(i64 32, ptr %5) #10
  ret i32 %29
}